target datalayout = "e-m:e-p270:32:32-p271:32:32-p272:64:64-i64:64-i128:128-f80:128-n8:16:32:64-S128"
target triple = "x86_64-pc-linux-gnu"

%struct.expert_field = type { i32, i32 }
%struct._packet_info = type { ptr, ptr, i32, i32, %struct.nstime_t, %struct.nstime_t, %struct.nstime_t, i8, ptr, ptr, ptr, ptr, %struct._address, %struct._address, %struct._address, %struct._address, %struct._address, %struct._address, i32, ptr, i8, [3 x i8], %struct.anon, i32, i32, i32, i32, ptr, i8, ptr, ptr, i16, i16, i32, i32, i16, i32, i32, ptr, ptr, ptr, i8, i8, i16, i16, i16, i32, i16, i16, ptr, ptr, ptr, ptr, ptr, i32, i32 }
%struct.nstime_t = type { i64, i32 }
%struct._address = type { i32, i32, ptr, ptr }
%struct.anon = type { i8, [3 x i8] }

@proto_gsm_sms = internal global i32 0, align 4
@ei_gsm_sms_message_dissector_not_implemented = internal global %struct.expert_field zeroinitializer, align 4
@ett_gsm_sms = internal global i32 0, align 4
@gsm_sms_proto_name = internal global ptr @.str.614, align 8
@gsm_sms_proto_name_short = internal global ptr @.str.615, align 8
@reassemble_sms = internal global i8 1, align 1
@g_tree = internal global ptr null, align 8
@.str.616 = private unnamed_addr constant [6 x i8] c"%s %s\00", align 1
@.str.617 = private unnamed_addr constant [27 x i8] c"Unknown message identifier\00", align 1
@gsm_sms_msg_fcn = internal global [9 x ptr] [ptr @dis_msg_deliver, ptr @dis_msg_deliver_report, ptr @dis_msg_submit, ptr @dis_msg_submit_report, ptr @dis_msg_status_report, ptr @dis_msg_command, ptr null, ptr null, ptr null], align 16

; Function Attrs: null_pointer_is_valid sspstrong uwtable
define internal i32 @dissect_gsm_sms(ptr noundef %0, ptr noundef %1, ptr noundef %2, ptr noundef %3) #0 {
  %5 = alloca i32, align 4
  %6 = alloca ptr, align 8
  %7 = alloca ptr, align 8
  %8 = alloca ptr, align 8
  %9 = alloca ptr, align 8
  %10 = alloca ptr, align 8
  %11 = alloca i32, align 4
  %12 = alloca i8, align 1
  %13 = alloca i8, align 1
  %14 = alloca i32, align 4
  %15 = alloca ptr, align 8
  %16 = alloca ptr, align 8
  %17 = alloca ptr, align 8
  %18 = alloca ptr, align 8
  %19 = alloca i32, align 4
  store ptr %0, ptr %6, align 8
  store ptr %1, ptr %7, align 8
  store ptr %2, ptr %8, align 8
  store ptr %3, ptr %9, align 8
  call void @llvm.lifetime.start.p0(i64 8, ptr %10) #13
  store ptr null, ptr %10, align 8
  call void @llvm.lifetime.start.p0(i64 4, ptr %11) #13
  call void @llvm.lifetime.start.p0(i64 1, ptr %12) #13
  call void @llvm.lifetime.start.p0(i64 1, ptr %13) #13
  call void @llvm.lifetime.start.p0(i64 4, ptr %14) #13
  call void @llvm.lifetime.start.p0(i64 8, ptr %15) #13
  store ptr null, ptr %15, align 8
  call void @llvm.lifetime.start.p0(i64 8, ptr %16) #13
  %20 = load ptr, ptr %9, align 8
  store ptr %20, ptr %16, align 8
  %21 = load ptr, ptr %7, align 8
  %22 = getelementptr inbounds nuw %struct._packet_info, ptr %21, i32 0, i32 1
  %23 = load ptr, ptr %22, align 8
  %24 = load ptr, ptr @gsm_sms_proto_name_short, align 8
  call void @col_set_str(ptr noundef %23, i32 noundef 35, ptr noundef %24)
  %25 = load ptr, ptr %8, align 8
  %26 = icmp ne ptr %25, null
  br i1 %26, label %30, label %27

27:                                               ; preds = %4
  %28 = load i8, ptr @reassemble_sms, align 1, !range !9, !noundef !10
  %29 = trunc i8 %28 to i1
  br i1 %29, label %30, label %105

30:                                               ; preds = %27, %4
  call void @llvm.lifetime.start.p0(i64 8, ptr %17) #13
  call void @llvm.lifetime.start.p0(i64 8, ptr %18) #13
  %31 = load ptr, ptr %8, align 8
  store ptr %31, ptr @g_tree, align 8
  store i32 0, ptr %11, align 4
  %32 = load ptr, ptr %6, align 8
  %33 = load i32, ptr %11, align 4
  %34 = call zeroext i8 @tvb_get_uint8(ptr noundef %32, i32 noundef %33)
  store i8 %34, ptr %13, align 1
  %35 = load i8, ptr %13, align 1
  %36 = zext i8 %35 to i32
  %37 = and i32 %36, 3
  %38 = trunc i32 %37 to i8
  store i8 %38, ptr %13, align 1
  %39 = load i8, ptr %13, align 1
  store i8 %39, ptr %12, align 1
  %40 = load ptr, ptr %7, align 8
  %41 = getelementptr inbounds nuw %struct._packet_info, ptr %40, i32 0, i32 37
  %42 = load i32, ptr %41, align 4
  %43 = icmp eq i32 %42, 1
  %44 = select i1 %43, i32 4, i32 0
  %45 = load i8, ptr %12, align 1
  %46 = zext i8 %45 to i32
  %47 = or i32 %46, %44
  %48 = trunc i32 %47 to i8
  store i8 %48, ptr %12, align 1
  %49 = load i8, ptr %12, align 1
  %50 = zext i8 %49 to i32
  %51 = call ptr @try_val_to_str_idx(i32 noundef %50, ptr noundef @msg_type_strings, ptr noundef %14)
  store ptr %51, ptr %15, align 8
  %52 = load ptr, ptr %8, align 8
  %53 = load i32, ptr @proto_gsm_sms, align 4
  %54 = load ptr, ptr %6, align 8
  %55 = load ptr, ptr @gsm_sms_proto_name, align 8
  %56 = load ptr, ptr %15, align 8
  %57 = icmp eq ptr %56, null
  br i1 %57, label %58, label %59

58:                                               ; preds = %30
  br label %61

59:                                               ; preds = %30
  %60 = load ptr, ptr %15, align 8
  br label %61

61:                                               ; preds = %59, %58
  %62 = phi ptr [ @.str.617, %58 ], [ %60, %59 ]
  %63 = call ptr (ptr, i32, ptr, i32, i32, ptr, ...) @proto_tree_add_protocol_format(ptr noundef %52, i32 noundef %53, ptr noundef %54, i32 noundef 0, i32 noundef -1, ptr noundef @.str.616, ptr noundef %55, ptr noundef %62)
  store ptr %63, ptr %17, align 8
  %64 = load ptr, ptr %17, align 8
  %65 = load i32, ptr @ett_gsm_sms, align 4
  %66 = call ptr @proto_item_add_subtree(ptr noundef %64, i32 noundef %65)
  store ptr %66, ptr %18, align 8
  %67 = load ptr, ptr %15, align 8
  %68 = icmp eq ptr %67, null
  br i1 %68, label %77, label %69

69:                                               ; preds = %61
  %70 = load i8, ptr %12, align 1
  %71 = zext i8 %70 to i32
  %72 = icmp eq i32 %71, 3
  br i1 %72, label %77, label %73

73:                                               ; preds = %69
  %74 = load i8, ptr %12, align 1
  %75 = zext i8 %74 to i32
  %76 = icmp eq i32 %75, 7
  br i1 %76, label %77, label %80

77:                                               ; preds = %73, %69, %61
  %78 = load ptr, ptr %6, align 8
  %79 = call i32 @tvb_captured_length(ptr noundef %78)
  store i32 %79, ptr %5, align 4
  store i32 1, ptr %19, align 4
  br label %102

80:                                               ; preds = %73
  %81 = load i32, ptr %14, align 4
  %82 = sext i32 %81 to i64
  %83 = getelementptr [9 x ptr], ptr @gsm_sms_msg_fcn, i64 0, i64 %82
  %84 = load ptr, ptr %83, align 8
  store ptr %84, ptr %10, align 8
  br label %85

85:                                               ; preds = %80
  %86 = load ptr, ptr %10, align 8
  %87 = icmp eq ptr %86, null
  br i1 %87, label %88, label %94

88:                                               ; preds = %85
  %89 = load ptr, ptr %18, align 8
  %90 = load ptr, ptr %7, align 8
  %91 = load ptr, ptr %6, align 8
  %92 = load i32, ptr %11, align 4
  %93 = call ptr @proto_tree_add_expert(ptr noundef %89, ptr noundef %90, ptr noundef @ei_gsm_sms_message_dissector_not_implemented, ptr noundef %91, i32 noundef %92, i32 noundef -1)
  br label %101

94:                                               ; preds = %85
  %95 = load ptr, ptr %10, align 8
  %96 = load ptr, ptr %6, align 8
  %97 = load ptr, ptr %7, align 8
  %98 = load ptr, ptr %18, align 8
  %99 = load i32, ptr %11, align 4
  %100 = load ptr, ptr %16, align 8
  call void %95(ptr noundef %96, ptr noundef %97, ptr noundef %98, i32 noundef %99, ptr noundef %100)
  br label %101

101:                                              ; preds = %94, %88
  store i32 0, ptr %19, align 4
  br label %102

102:                                              ; preds = %101, %77
  call void @llvm.lifetime.end.p0(i64 8, ptr %18) #13
  call void @llvm.lifetime.end.p0(i64 8, ptr %17) #13
  %103 = load i32, ptr %19, align 4
  switch i32 %103, label %108 [
    i32 0, label %104
  ]

104:                                              ; preds = %102
  br label %105

105:                                              ; preds = %104, %27
  %106 = load ptr, ptr %6, align 8
  %107 = call i32 @tvb_captured_length(ptr noundef %106)
  store i32 %107, ptr %5, align 4
  store i32 1, ptr %19, align 4
  br label %108

108:                                              ; preds = %105, %102
  call void @llvm.lifetime.end.p0(i64 8, ptr %16) #13
  call void @llvm.lifetime.end.p0(i64 8, ptr %15) #13
  call void @llvm.lifetime.end.p0(i64 4, ptr %14) #13
  call void @llvm.lifetime.end.p0(i64 1, ptr %13) #13
  call void @llvm.lifetime.end.p0(i64 1, ptr %12) #13
  call void @llvm.lifetime.end.p0(i64 4, ptr %11) #13
  call void @llvm.lifetime.end.p0(i64 8, ptr %10) #13
  %109 = load i32, ptr %5, align 4
  ret i32 %109
}