; Function Attrs: null_pointer_is_valid sspstrong uwtable
define internal i32 @dissect_gsm_sms(ptr noundef %0, ptr noundef %1, ptr noundef %2, ptr noundef %3) #0 {
  %5 = alloca i32, align 4
  call void @llvm.lifetime.start.p0(i64 4, ptr nonnull %5) #10
  %6 = getelementptr inbounds nuw i8, ptr %1, i64 8
  %7 = load ptr, ptr %6, align 8
  tail call void @col_set_str(ptr noundef %7, i32 noundef 35, ptr noundef nonnull @.str.615)
  %.not = icmp eq ptr %2, null
  br i1 %.not, label %8, label %11

8:                                                ; preds = %4
  %9 = load i8, ptr @reassemble_sms, align 1, !range !9, !noundef !10
  %10 = trunc nuw i8 %9 to i1
  br i1 %10, label %11, label %.thread

11:                                               ; preds = %8, %4
  store ptr %2, ptr @g_tree, align 8
  %12 = tail call zeroext i8 @tvb_get_uint8(ptr noundef %0, i32 noundef 0)
  %13 = and i8 %12, 3
  %14 = getelementptr inbounds nuw i8, ptr %1, i64 348
  %15 = load i32, ptr %14, align 4
  %16 = icmp eq i32 %15, 1
  %17 = select i1 %16, i8 4, i8 0
  %18 = or disjoint i8 %17, %13
  %19 = zext nneg i8 %18 to i32
  %20 = call ptr @try_val_to_str_idx(i32 noundef %19, ptr noundef nonnull @msg_type_strings, ptr noundef nonnull %5)
  %21 = load i32, ptr @proto_gsm_sms, align 4
  %22 = icmp ne ptr %20, null
  %23 = select i1 %22, ptr %20, ptr @.str.617
  %24 = call ptr (ptr, i32, ptr, i32, i32, ptr, ...) @proto_tree_add_protocol_format(ptr noundef %2, i32 noundef %21, ptr noundef %0, i32 noundef 0, i32 noundef -1, ptr noundef nonnull @.str.616, ptr noundef nonnull @.str.614, ptr noundef nonnull %23)
  %25 = load i32, ptr @ett_gsm_sms, align 4
  %26 = call ptr @proto_item_add_subtree(ptr noundef %24, i32 noundef %25)
  %27 = icmp ne i8 %13, 3
  %or.cond5.not = and i1 %27, %22
  br i1 %or.cond5.not, label %28, label %.thread

28:                                               ; preds = %11
  %29 = load i32, ptr %5, align 4
  %30 = sext i32 %29 to i64
  %31 = and i64 %30, 2305843009213693951
  %32 = add nsw i64 %31, -6
  %33 = icmp ult i64 %32, 3
  br i1 %33, label %34, label %36

34:                                               ; preds = %28
  %35 = call ptr @proto_tree_add_expert(ptr noundef %26, ptr noundef %1, ptr noundef nonnull @ei_gsm_sms_message_dissector_not_implemented, ptr noundef %0, i32 noundef 0, i32 noundef -1)
  br label %.thread

36:                                               ; preds = %28
  %37 = getelementptr [9 x ptr], ptr @gsm_sms_msg_fcn, i64 0, i64 %30
  %38 = load ptr, ptr %37, align 8
  call void %38(ptr noundef %0, ptr noundef %1, ptr noundef %26, i32 noundef 0, ptr noundef %3)
  br label %.thread

.thread:                                          ; preds = %8, %34, %36, %11
  %39 = call i32 @tvb_captured_length(ptr noundef %0)
  call void @llvm.lifetime.end.p0(i64 4, ptr nonnull %5) #10
  ret i32 %39
}